(iold_world
OldWorld
p0
(dp1
S'stp1'
p2
(lp3
F0.8388632131102198
aF0.40818819699809816
aF0.06981616344419195
aF0.1437716366201941
aF0.37520982067913944
aF0.7223807499696852
aF0.34649063719110995
aF0.13471711228678063
aF0.6452831009612361
aF0.8800275921845339
aF0.8500809481425285
aF0.2872418256475654
aF0.681829947236409
aF0.30276912335298123
aF0.6519847446902995
aF0.7347516413778848
aF0.19757582742768776
aF0.07474691378104448
aF0.9511319156890516
aF0.6551290610990318
aF0.20819836230187228
aF0.13680801483825045
aF0.05407862122200546
aF0.7575068190261904
aF0.26844549825280406
aF0.26285177040036667
aF0.7563024374703434
aF0.19453677765498445
aF0.1963029403334441
aF0.06264122403929284
aF0.5816661648403044
aF0.6832838333803506
aF0.9958496307988715
aF0.831694680968749
aF0.5456167769279255
aF0.5228264497430752
aF0.9332750072039143
aF0.29527990833269147
aF0.4334148072309535
aF0.2747073952452135
aF0.7923796541460763
aF0.5780706224861772
aF0.6976089683483091
aF0.4910275975802939
aF0.24035502204366688
aF0.9758118658752036
aF0.1939609447757048
aF0.6755900068479689
aF0.9227008706172675
aF0.7478460192063339
asS's'
p4
(lp5
F0.5444847896795241
aF0.04601754161461613
aF0.938302714068293
aF0.0905715084698887
aF0.9399909627130361
aF0.6251244077900524
aF0.6074506648594771
aF0.8567042741914197
aF0.6858601894009713
aF0.9850011797158639
aF0.4398093124660757
aF0.2143520228538316
aF0.21244427392257015
aF0.9042291962672523
aF0.2079389669566868
aF0.6071540465371117
aF0.9530768831226257
aF0.18475225376705917
aF0.8512388315327826
aF0.1459204735534757
aF0.7966944022614452
aF0.5919365782907292
aF0.8371460405676857
aF0.8217691325294885
aF0.75822318025
aF0.13958214421215376
aF0.7151419325137139
aF0.4450844039655576
aF0.4343812666198692
aF0.6657720418688561
aF0.3226700339938613
aF0.3630770942634094
aF0.16501764311146472
aF0.6148732337992538
aF0.46590795925594575
aF0.8723260795164646
aF0.8148833611807242
aF0.6315474443961273
aF0.3778378480800346
aF0.8485995197008761
aF0.7620700990140714
aF0.7424967149946825
aF0.8814538677367915
aF0.20116747370791377
aF0.9600899500552932
aF0.9125980981424591
aF0.44195168048886646
aF0.6397911368886265
aF0.5621703479662697
aF0.42927892769217435
asb.